target datalayout = "e-m:e-p270:32:32-p271:32:32-p272:64:64-i64:64-i128:128-f80:128-n8:16:32:64-S128"
target triple = "x86_64-pc-linux-gnu"

; Function Attrs: nounwind uwtable
define internal i32 @HKDF_Expand(ptr noundef %0, ptr noundef %1, i64 noundef %2, ptr noundef %3, i64 noundef %4, ptr noundef %5, i64 noundef %6) #0 {
  %8 = alloca i32, align 4
  %9 = alloca ptr, align 8
  %10 = alloca ptr, align 8
  %11 = alloca i64, align 8
  %12 = alloca ptr, align 8
  %13 = alloca i64, align 8
  %14 = alloca ptr, align 8
  %15 = alloca i64, align 8
  %16 = alloca ptr, align 8
  %17 = alloca i32, align 4
  %18 = alloca i32, align 4
  %19 = alloca i32, align 4
  %20 = alloca [64 x i8], align 16
  %21 = alloca i64, align 8
  %22 = alloca i64, align 8
  %23 = alloca i64, align 8
  %24 = alloca i32, align 4
  %25 = alloca i64, align 8
  %26 = alloca i8, align 1
  store ptr %0, ptr %9, align 8, !tbaa !34
  store ptr %1, ptr %10, align 8, !tbaa !28
  store i64 %2, ptr %11, align 8, !tbaa !29
  store ptr %3, ptr %12, align 8, !tbaa !28
  store i64 %4, ptr %13, align 8, !tbaa !29
  store ptr %5, ptr %14, align 8, !tbaa !28
  store i64 %6, ptr %15, align 8, !tbaa !29
  call void @llvm.lifetime.start.p0(i64 8, ptr %16) #6
  call void @llvm.lifetime.start.p0(i64 4, ptr %17) #6
  store i32 0, ptr %17, align 4, !tbaa !35
  call void @llvm.lifetime.start.p0(i64 4, ptr %18) #6
  call void @llvm.lifetime.start.p0(i64 4, ptr %19) #6
  call void @llvm.lifetime.start.p0(i64 64, ptr %20) #6
  call void @llvm.lifetime.start.p0(i64 8, ptr %21) #6
  store i64 0, ptr %21, align 8, !tbaa !29
  call void @llvm.lifetime.start.p0(i64 8, ptr %22) #6
  call void @llvm.lifetime.start.p0(i64 8, ptr %23) #6
  %27 = load ptr, ptr %9, align 8, !tbaa !34
  %28 = call i32 @EVP_MD_get_size(ptr noundef %27)
  store i32 %28, ptr %18, align 4, !tbaa !35
  %29 = load i32, ptr %18, align 4, !tbaa !35
  %30 = icmp sle i32 %29, 0
  br i1 %30, label %31, label %32

31:                                               ; preds = %7
  store i32 0, ptr %8, align 4
  store i32 1, ptr %24, align 4
  br label %140

32:                                               ; preds = %7
  %33 = load i32, ptr %18, align 4, !tbaa !35
  %34 = sext i32 %33 to i64
  store i64 %34, ptr %22, align 8, !tbaa !29
  %35 = load i64, ptr %15, align 8, !tbaa !29
  %36 = load i64, ptr %22, align 8, !tbaa !29
  %37 = udiv i64 %35, %36
  store i64 %37, ptr %23, align 8, !tbaa !29
  %38 = load i64, ptr %15, align 8, !tbaa !29
  %39 = load i64, ptr %22, align 8, !tbaa !29
  %40 = urem i64 %38, %39
  %41 = icmp ne i64 %40, 0
  br i1 %41, label %42, label %45

42:                                               ; preds = %32
  %43 = load i64, ptr %23, align 8, !tbaa !29
  %44 = add i64 %43, 1
  store i64 %44, ptr %23, align 8, !tbaa !29
  br label %45

45:                                               ; preds = %42, %32
  %46 = load i64, ptr %23, align 8, !tbaa !29
  %47 = icmp ugt i64 %46, 255
  br i1 %47, label %51, label %48

48:                                               ; preds = %45
  %49 = load ptr, ptr %14, align 8, !tbaa !28
  %50 = icmp eq ptr %49, null
  br i1 %50, label %51, label %52

51:                                               ; preds = %48, %45
  store i32 0, ptr %8, align 4
  store i32 1, ptr %24, align 4
  br label %140

52:                                               ; preds = %48
  %53 = call ptr @HMAC_CTX_new()
  store ptr %53, ptr %16, align 8, !tbaa !36
  %54 = icmp eq ptr %53, null
  br i1 %54, label %55, label %56

55:                                               ; preds = %52
  store i32 0, ptr %8, align 4
  store i32 1, ptr %24, align 4
  br label %140

56:                                               ; preds = %52
  %57 = load ptr, ptr %16, align 8, !tbaa !36
  %58 = load ptr, ptr %10, align 8, !tbaa !28
  %59 = load i64, ptr %11, align 8, !tbaa !29
  %60 = trunc i64 %59 to i32
  %61 = load ptr, ptr %9, align 8, !tbaa !34
  %62 = call i32 @HMAC_Init_ex(ptr noundef %57, ptr noundef %58, i32 noundef %60, ptr noundef %61, ptr noundef null)
  %63 = icmp ne i32 %62, 0
  br i1 %63, label %65, label %64

64:                                               ; preds = %56
  br label %136

65:                                               ; preds = %56
  store i32 1, ptr %19, align 4, !tbaa !35
  br label %66

66:                                               ; preds = %132, %65
  %67 = load i32, ptr %19, align 4, !tbaa !35
  %68 = zext i32 %67 to i64
  %69 = load i64, ptr %23, align 8, !tbaa !29
  %70 = icmp ule i64 %68, %69
  br i1 %70, label %71, label %135

71:                                               ; preds = %66
  call void @llvm.lifetime.start.p0(i64 8, ptr %25) #6
  call void @llvm.lifetime.start.p0(i64 1, ptr %26) #6
  %72 = load i32, ptr %19, align 4, !tbaa !35
  %73 = trunc i32 %72 to i8
  store i8 %73, ptr %26, align 1, !tbaa !38
  %74 = load i32, ptr %19, align 4, !tbaa !35
  %75 = icmp ugt i32 %74, 1
  br i1 %75, label %76, label %89

76:                                               ; preds = %71
  %77 = load ptr, ptr %16, align 8, !tbaa !36
  %78 = call i32 @HMAC_Init_ex(ptr noundef %77, ptr noundef null, i32 noundef 0, ptr noundef null, ptr noundef null)
  %79 = icmp ne i32 %78, 0
  br i1 %79, label %81, label %80

80:                                               ; preds = %76
  store i32 2, ptr %24, align 4
  br label %129

81:                                               ; preds = %76
  %82 = load ptr, ptr %16, align 8, !tbaa !36
  %83 = getelementptr inbounds [64 x i8], ptr %20, i64 0, i64 0
  %84 = load i64, ptr %22, align 8, !tbaa !29
  %85 = call i32 @HMAC_Update(ptr noundef %82, ptr noundef %83, i64 noundef %84)
  %86 = icmp ne i32 %85, 0
  br i1 %86, label %88, label %87

87:                                               ; preds = %81
  store i32 2, ptr %24, align 4
  br label %129

88:                                               ; preds = %81
  br label %89

89:                                               ; preds = %88, %71
  %90 = load ptr, ptr %16, align 8, !tbaa !36
  %91 = load ptr, ptr %12, align 8, !tbaa !28
  %92 = load i64, ptr %13, align 8, !tbaa !29
  %93 = call i32 @HMAC_Update(ptr noundef %90, ptr noundef %91, i64 noundef %92)
  %94 = icmp ne i32 %93, 0
  br i1 %94, label %96, label %95

95:                                               ; preds = %89
  store i32 2, ptr %24, align 4
  br label %129

96:                                               ; preds = %89
  %97 = load ptr, ptr %16, align 8, !tbaa !36
  %98 = call i32 @HMAC_Update(ptr noundef %97, ptr noundef %26, i64 noundef 1)
  %99 = icmp ne i32 %98, 0
  br i1 %99, label %101, label %100

100:                                              ; preds = %96
  store i32 2, ptr %24, align 4
  br label %129

101:                                              ; preds = %96
  %102 = load ptr, ptr %16, align 8, !tbaa !36
  %103 = getelementptr inbounds [64 x i8], ptr %20, i64 0, i64 0
  %104 = call i32 @HMAC_Final(ptr noundef %102, ptr noundef %103, ptr noundef null)
  %105 = icmp ne i32 %104, 0
  br i1 %105, label %107, label %106

106:                                              ; preds = %101
  store i32 2, ptr %24, align 4
  br label %129

107:                                              ; preds = %101
  %108 = load i64, ptr %22, align 8, !tbaa !29
  %109 = load i64, ptr %15, align 8, !tbaa !29
  %110 = load i64, ptr %21, align 8, !tbaa !29
  %111 = sub i64 %109, %110
  %112 = icmp ugt i64 %108, %111
  br i1 %112, label %113, label %117

113:                                              ; preds = %107
  %114 = load i64, ptr %15, align 8, !tbaa !29
  %115 = load i64, ptr %21, align 8, !tbaa !29
  %116 = sub i64 %114, %115
  br label %119

117:                                              ; preds = %107
  %118 = load i64, ptr %22, align 8, !tbaa !29
  br label %119

119:                                              ; preds = %117, %113
  %120 = phi i64 [ %116, %113 ], [ %118, %117 ]
  store i64 %120, ptr %25, align 8, !tbaa !29
  %121 = load ptr, ptr %14, align 8, !tbaa !28
  %122 = load i64, ptr %21, align 8, !tbaa !29
  %123 = getelementptr inbounds nuw i8, ptr %121, i64 %122
  %124 = getelementptr inbounds [64 x i8], ptr %20, i64 0, i64 0
  %125 = load i64, ptr %25, align 8, !tbaa !29
  call void @llvm.memcpy.p0.p0.i64(ptr align 1 %123, ptr align 16 %124, i64 %125, i1 false)
  %126 = load i64, ptr %25, align 8, !tbaa !29
  %127 = load i64, ptr %21, align 8, !tbaa !29
  %128 = add i64 %127, %126
  store i64 %128, ptr %21, align 8, !tbaa !29
  store i32 0, ptr %24, align 4
  br label %129

129:                                              ; preds = %106, %100, %95, %87, %80, %119
  call void @llvm.lifetime.end.p0(i64 1, ptr %26) #6
  call void @llvm.lifetime.end.p0(i64 8, ptr %25) #6
  %130 = load i32, ptr %24, align 4
  switch i32 %130, label %140 [
    i32 0, label %131
    i32 2, label %136
  ]

131:                                              ; preds = %129
  br label %132

132:                                              ; preds = %131
  %133 = load i32, ptr %19, align 4, !tbaa !35
  %134 = add i32 %133, 1
  store i32 %134, ptr %19, align 4, !tbaa !35
  br label %66, !llvm.loop !39

135:                                              ; preds = %66
  store i32 1, ptr %17, align 4, !tbaa !35
  br label %136

136:                                              ; preds = %135, %129, %64
  %137 = getelementptr inbounds [64 x i8], ptr %20, i64 0, i64 0
  call void @OPENSSL_cleanse(ptr noundef %137, i64 noundef 64)
  %138 = load ptr, ptr %16, align 8, !tbaa !36
  call void @HMAC_CTX_free(ptr noundef %138)
  %139 = load i32, ptr %17, align 4, !tbaa !35
  store i32 %139, ptr %8, align 4
  store i32 1, ptr %24, align 4
  br label %140

140:                                              ; preds = %136, %129, %55, %51, %31
  call void @llvm.lifetime.end.p0(i64 8, ptr %23) #6
  call void @llvm.lifetime.end.p0(i64 8, ptr %22) #6
  call void @llvm.lifetime.end.p0(i64 8, ptr %21) #6
  call void @llvm.lifetime.end.p0(i64 64, ptr %20) #6
  call void @llvm.lifetime.end.p0(i64 4, ptr %19) #6
  call void @llvm.lifetime.end.p0(i64 4, ptr %18) #6
  call void @llvm.lifetime.end.p0(i64 4, ptr %17) #6
  call void @llvm.lifetime.end.p0(i64 8, ptr %16) #6
  %141 = load i32, ptr %8, align 4
  ret i32 %141
}