; Function Attrs: nounwind uwtable
define internal fastcc range(i32 0, 2) i32 @HKDF_Expand(ptr noundef nonnull %0, ptr noundef %1, i64 noundef %2, ptr noundef %3, i64 noundef %4, ptr noundef writeonly captures(address_is_null) %5, i64 noundef %6) unnamed_addr #0 {
  %8 = alloca [64 x i8], align 16
  %9 = alloca i8, align 1
  call void @llvm.lifetime.start.p0(i64 64, ptr nonnull %8) #7
  %10 = tail call i32 @EVP_MD_get_size(ptr noundef nonnull %0) #7
  %11 = icmp slt i32 %10, 1
  br i1 %11, label %44, label %12

12:                                               ; preds = %7
  %13 = zext nneg i32 %10 to i64
  %14 = udiv i64 %6, %13
  %15 = urem i64 %6, %13
  %.not = icmp ne i64 %15, 0
  %16 = zext i1 %.not to i64
  %spec.select = add i64 %14, %16
  %17 = icmp ugt i64 %spec.select, 255
  %18 = icmp eq ptr %5, null
  %or.cond = or i1 %18, %17
  br i1 %or.cond, label %44, label %19

19:                                               ; preds = %12
  %20 = tail call ptr @HMAC_CTX_new() #7
  %21 = icmp eq ptr %20, null
  br i1 %21, label %44, label %22

22:                                               ; preds = %19
  %23 = trunc i64 %2 to i32
  %24 = tail call i32 @HMAC_Init_ex(ptr noundef nonnull %20, ptr noundef %1, i32 noundef %23, ptr noundef nonnull %0, ptr noundef null) #7
  %.not50 = icmp eq i32 %24, 0
  br i1 %.not50, label %.loopexit, label %.preheader

.preheader:                                       ; preds = %22
  %.not5161 = icmp eq i64 %spec.select, 0
  br i1 %.not5161, label %.loopexit, label %.lr.ph

.lr.ph:                                           ; preds = %.preheader, %37
  %.04563 = phi i64 [ %41, %37 ], [ 0, %.preheader ]
  %.04662 = phi i32 [ %42, %37 ], [ 1, %.preheader ]
  call void @llvm.lifetime.start.p0(i64 1, ptr nonnull %9) #7
  %25 = trunc i32 %.04662 to i8
  store i8 %25, ptr %9, align 1, !tbaa !29
  %26 = icmp ugt i32 %.04662, 1
  br i1 %26, label %27, label %31

27:                                               ; preds = %.lr.ph
  %28 = call i32 @HMAC_Init_ex(ptr noundef nonnull %20, ptr noundef null, i32 noundef 0, ptr noundef null, ptr noundef null) #7
  %.not52 = icmp eq i32 %28, 0
  br i1 %.not52, label %.thread, label %29

29:                                               ; preds = %27
  %30 = call i32 @HMAC_Update(ptr noundef nonnull %20, ptr noundef nonnull %8, i64 noundef %13) #7
  %.not53 = icmp eq i32 %30, 0
  br i1 %.not53, label %.thread, label %31

31:                                               ; preds = %29, %.lr.ph
  %32 = call i32 @HMAC_Update(ptr noundef nonnull %20, ptr noundef %3, i64 noundef %4) #7
  %.not54 = icmp eq i32 %32, 0
  br i1 %.not54, label %.thread, label %33

33:                                               ; preds = %31
  %34 = call i32 @HMAC_Update(ptr noundef nonnull %20, ptr noundef nonnull %9, i64 noundef 1) #7
  %.not55 = icmp eq i32 %34, 0
  br i1 %.not55, label %.thread, label %35

35:                                               ; preds = %33
  %36 = call i32 @HMAC_Final(ptr noundef nonnull %20, ptr noundef nonnull %8, ptr noundef null) #7
  %.not56 = icmp eq i32 %36, 0
  br i1 %.not56, label %.thread, label %37

.thread:                                          ; preds = %27, %29, %31, %33, %35
  call void @llvm.lifetime.end.p0(i64 1, ptr nonnull %9) #7
  br label %.loopexit

37:                                               ; preds = %35
  %38 = sub i64 %6, %.04563
  %39 = call i64 @llvm.umin.i64(i64 %38, i64 %13)
  %40 = getelementptr inbounds nuw i8, ptr %5, i64 %.04563
  call void @llvm.memcpy.p0.p0.i64(ptr align 1 %40, ptr nonnull align 16 %8, i64 %39, i1 false)
  %41 = add i64 %39, %.04563
  call void @llvm.lifetime.end.p0(i64 1, ptr nonnull %9) #7
  %42 = add i32 %.04662, 1
  %43 = zext i32 %42 to i64
  %.not51 = icmp ult i64 %spec.select, %43
  br i1 %.not51, label %.loopexit, label %.lr.ph, !llvm.loop !30

.loopexit:                                        ; preds = %37, %.preheader, %.thread, %22
  %.044 = phi i32 [ 0, %22 ], [ 0, %.thread ], [ 1, %.preheader ], [ 1, %37 ]
  call void @OPENSSL_cleanse(ptr noundef nonnull %8, i64 noundef 64) #7
  call void @HMAC_CTX_free(ptr noundef nonnull %20) #7
  br label %44

44:                                               ; preds = %19, %12, %7, %.loopexit
  %.0 = phi i32 [ %.044, %.loopexit ], [ 0, %7 ], [ 0, %12 ], [ 0, %19 ]
  call void @llvm.lifetime.end.p0(i64 64, ptr nonnull %8) #7
  ret i32 %.0
}